target datalayout = "e-m:e-p270:32:32-p271:32:32-p272:64:64-i64:64-i128:128-f80:128-n8:16:32:64-S128"
target triple = "x86_64-pc-linux-gnu"

%struct.AVFilterContext = type { ptr, ptr, ptr, ptr, ptr, i32, ptr, ptr, i32, ptr, ptr, i32, i32, ptr, ptr, ptr, ptr, i32, ptr, i32, i32 }
%struct.GEQContext = type { ptr, [4 x [32 x ptr]], [7 x ptr], ptr, ptr, ptr, ptr, [8 x double], i32, i32, i32, i32, i32, i32, [4 x ptr], [4 x i32] }
%struct.AVFilterLink = type { ptr, ptr, ptr, ptr, i32, i32, i32, i32, %struct.AVRational, i32, i32, i32, %struct.AVChannelLayout, %struct.AVRational, ptr, i32, %struct.AVFilterFormatsConfig, %struct.AVFilterFormatsConfig }
%struct.AVChannelLayout = type { i32, i32, %union.anon.1, ptr }
%union.anon.1 = type { i64 }
%struct.AVRational = type { i32, i32 }
%struct.AVFilterFormatsConfig = type { ptr, ptr, ptr, ptr, ptr }
%struct.AVPixFmtDescriptor = type { ptr, i8, i8, i8, i64, [4 x %struct.AVComponentDescriptor], ptr }
%struct.AVComponentDescriptor = type { i32, i32, i32, i32, i32 }

@.str.3 = private unnamed_addr constant [30 x i8] c"Assertion %s failed at %s:%d\0A\00", align 1
@.str.4 = private unnamed_addr constant [5 x i8] c"desc\00", align 1
@.str.5 = private unnamed_addr constant [21 x i8] c"libavfilter/vf_geq.c\00", align 1

; Function Attrs: nounwind uwtable
define internal i32 @geq_config_props(ptr noundef %0) #1 {
  %2 = alloca ptr, align 8
  %3 = alloca ptr, align 8
  %4 = alloca ptr, align 8
  store ptr %0, ptr %2, align 8, !tbaa !45
  call void @llvm.lifetime.start.p0(i64 8, ptr %3) #11
  %5 = load ptr, ptr %2, align 8, !tbaa !45
  %6 = getelementptr inbounds nuw %struct.AVFilterLink, ptr %5, i32 0, i32 2
  %7 = load ptr, ptr %6, align 8, !tbaa !50
  %8 = getelementptr inbounds nuw %struct.AVFilterContext, ptr %7, i32 0, i32 9
  %9 = load ptr, ptr %8, align 8, !tbaa !9
  store ptr %9, ptr %3, align 8, !tbaa !22
  call void @llvm.lifetime.start.p0(i64 8, ptr %4) #11
  %10 = load ptr, ptr %2, align 8, !tbaa !45
  %11 = getelementptr inbounds nuw %struct.AVFilterLink, ptr %10, i32 0, i32 5
  %12 = load i32, ptr %11, align 4, !tbaa !83
  %13 = call ptr @av_pix_fmt_desc_get(i32 noundef %12)
  store ptr %13, ptr %4, align 8, !tbaa !84
  br label %14

14:                                               ; preds = %1
  %15 = load ptr, ptr %4, align 8, !tbaa !84
  %16 = icmp ne ptr %15, null
  br i1 %16, label %18, label %17

17:                                               ; preds = %14
  call void (ptr, i32, ptr, ...) @av_log(ptr noundef null, i32 noundef 0, ptr noundef @.str.3, ptr noundef @.str.4, ptr noundef @.str.5, i32 noundef 384)
  call void @abort() #13
  unreachable

18:                                               ; preds = %14
  br label %19

19:                                               ; preds = %18
  br label %20

20:                                               ; preds = %19
  %21 = load ptr, ptr %4, align 8, !tbaa !84
  %22 = getelementptr inbounds nuw %struct.AVPixFmtDescriptor, ptr %21, i32 0, i32 2
  %23 = load i8, ptr %22, align 1, !tbaa !86
  %24 = zext i8 %23 to i32
  %25 = load ptr, ptr %3, align 8, !tbaa !22
  %26 = getelementptr inbounds nuw %struct.GEQContext, ptr %25, i32 0, i32 8
  store i32 %24, ptr %26, align 8, !tbaa !72
  %27 = load ptr, ptr %4, align 8, !tbaa !84
  %28 = getelementptr inbounds nuw %struct.AVPixFmtDescriptor, ptr %27, i32 0, i32 3
  %29 = load i8, ptr %28, align 2, !tbaa !88
  %30 = zext i8 %29 to i32
  %31 = load ptr, ptr %3, align 8, !tbaa !22
  %32 = getelementptr inbounds nuw %struct.GEQContext, ptr %31, i32 0, i32 9
  store i32 %30, ptr %32, align 4, !tbaa !73
  %33 = load ptr, ptr %4, align 8, !tbaa !84
  %34 = getelementptr inbounds nuw %struct.AVPixFmtDescriptor, ptr %33, i32 0, i32 5
  %35 = getelementptr inbounds [4 x %struct.AVComponentDescriptor], ptr %34, i64 0, i64 0
  %36 = getelementptr inbounds nuw %struct.AVComponentDescriptor, ptr %35, i32 0, i32 4
  %37 = load i32, ptr %36, align 8, !tbaa !89
  %38 = load ptr, ptr %3, align 8, !tbaa !22
  %39 = getelementptr inbounds nuw %struct.GEQContext, ptr %38, i32 0, i32 13
  store i32 %37, ptr %39, align 4, !tbaa !31
  %40 = load ptr, ptr %4, align 8, !tbaa !84
  %41 = getelementptr inbounds nuw %struct.AVPixFmtDescriptor, ptr %40, i32 0, i32 1
  %42 = load i8, ptr %41, align 8, !tbaa !91
  %43 = zext i8 %42 to i32
  %44 = load ptr, ptr %3, align 8, !tbaa !22
  %45 = getelementptr inbounds nuw %struct.GEQContext, ptr %44, i32 0, i32 10
  store i32 %43, ptr %45, align 8, !tbaa !71
  call void @llvm.lifetime.end.p0(i64 8, ptr %4) #11
  call void @llvm.lifetime.end.p0(i64 8, ptr %3) #11
  ret i32 0
}