; Function Attrs: nounwind uwtable
define internal noundef i32 @geq_config_props(ptr noundef readonly captures(none) %0) #1 {
  %2 = getelementptr inbounds nuw i8, ptr %0, i64 16
  %3 = load ptr, ptr %2, align 8, !tbaa !38
  %4 = getelementptr inbounds nuw i8, ptr %3, i64 72
  %5 = load ptr, ptr %4, align 8, !tbaa !4
  %6 = getelementptr inbounds nuw i8, ptr %0, i64 36
  %7 = load i32, ptr %6, align 4, !tbaa !86
  %8 = tail call ptr @av_pix_fmt_desc_get(i32 noundef %7) #13
  %.not = icmp eq ptr %8, null
  br i1 %.not, label %9, label %10

9:                                                ; preds = %1
  tail call void (ptr, i32, ptr, ...) @av_log(ptr noundef null, i32 noundef 0, ptr noundef nonnull @.str.3, ptr noundef nonnull @.str.4, ptr noundef nonnull @.str.5, i32 noundef 384) #13
  tail call void @abort() #15
  unreachable

10:                                               ; preds = %1
  %11 = getelementptr inbounds nuw i8, ptr %8, i64 9
  %12 = load i8, ptr %11, align 1, !tbaa !87
  %13 = zext i8 %12 to i32
  %14 = getelementptr inbounds nuw i8, ptr %5, i64 1184
  store i32 %13, ptr %14, align 8, !tbaa !64
  %15 = getelementptr inbounds nuw i8, ptr %8, i64 10
  %16 = load i8, ptr %15, align 2, !tbaa !89
  %17 = zext i8 %16 to i32
  %18 = getelementptr inbounds nuw i8, ptr %5, i64 1188
  store i32 %17, ptr %18, align 4, !tbaa !65
  %19 = getelementptr inbounds nuw i8, ptr %8, i64 40
  %20 = load i32, ptr %19, align 8, !tbaa !90
  %21 = getelementptr inbounds nuw i8, ptr %5, i64 1204
  store i32 %20, ptr %21, align 4, !tbaa !26
  %22 = getelementptr inbounds nuw i8, ptr %8, i64 8
  %23 = load i8, ptr %22, align 8, !tbaa !92
  %24 = zext i8 %23 to i32
  %25 = getelementptr inbounds nuw i8, ptr %5, i64 1192
  store i32 %24, ptr %25, align 8, !tbaa !63
  ret i32 0
}